target datalayout = "e-m:e-p270:32:32-p271:32:32-p272:64:64-i64:64-i128:128-f80:128-n8:16:32:64-S128"
target triple = "x86_64-pc-linux-gnu"

%struct.MPVEncContext = type { %struct.MpegEncContext, %struct.PutBitContext, i32, i32, ptr, i32, i32, i32, i32, i32, i32, i32, i32, ptr, ptr, %struct.FDCTDSPContext, %struct.MpegvideoEncDSPContext, %struct.PixblockDSPContext, %struct.MotionEstContext, i32, i32, ptr, ptr, ptr, ptr, ptr, ptr, [2 x [2 x [2 x ptr]]], [2 x ptr], [2 x [2 x ptr]], ptr, ptr, ptr, ptr, [3 x i64], i32, i32, i32, i32, i32, ptr, ptr, ptr, ptr, ptr, ptr, ptr, [12 x i32], ptr, ptr, ptr, ptr, ptr, ptr, ptr, ptr, [2 x i32], ptr, i32, i32, i32, i32, i32, i32, i32, i32, i32, i32, ptr, ptr, i32, i32, %struct.PutBitContext, %struct.PutBitContext, i32, i32, i32, i32, ptr, ptr, ptr, [2 x ptr], [2 x ptr], [2 x ptr], [2 x ptr], ptr, i32 }
%struct.MpegEncContext = type { ptr, i32, i32, i32, [12 x i32], i32, %struct.ScanTable, %struct.ScanTable, [64 x i8], [64 x i8], ptr, ptr, i32, i32, i32, i32, i32, i32, i32, i32, i32, i32, i32, i32, i32, i32, i32, i32, i32, i32, i32, i32, i64, i64, ptr, %struct.BufferPoolContext, i32, i32, %union.anon.0, i32, %struct.MPVWorkPicture, %struct.MPVWorkPicture, %struct.MPVWorkPicture, i32, [3 x i32], ptr, [3 x ptr], ptr, ptr, ptr, ptr, ptr, ptr, [3 x ptr], i32, ptr, ptr, ptr, ptr, %struct.ScratchpadContext, i32, i32, i32, i32, i32, i32, %struct.BlockDSPContext, %struct.H264ChromaContext, %struct.HpelDSPContext, %struct.IDCTDSPContext, %struct.QpelDSPContext, %struct.VideoDSPContext, %struct.H263DSPContext, ptr, [2 x [2 x ptr]], i32, i32, [2 x [4 x [2 x i32]]], [2 x [2 x i32]], [2 x [2 x [2 x i32]]], [2 x [64 x i16]], i32, i32, i32, i32, i32, [6 x i32], [6 x i32], [3 x ptr], ptr, [64 x i16], [64 x i16], [64 x i16], [64 x i16], i32, i32, %struct.GetBitContext, i32, i32, i32, i32, i32, i32, i32, i32, i32, i32, i32, i32, i32, i32, i32, i64, i64, i16, i16, i16, i16, i32, i32, i32, i32, i32, i32, i32, i32, i32, [3 x i32], i32, i32, i32, i32, i32, i32, %struct.GetBitContext, i32, [2 x [2 x i32]], i32, i32, i32, i32, i32, i32, i32, i32, i32, i32, i32, i32, i32, i32, [2 x i32], i32, i32, ptr, ptr, ptr, ptr, ptr, i32, i32, %struct.ERContext }
%struct.ScanTable = type { ptr, [64 x i8], [64 x i8] }
%struct.BufferPoolContext = type { ptr, ptr, ptr, ptr, ptr, i32, i32, i32 }
%union.anon.0 = type { [32 x ptr] }
%struct.MPVWorkPicture = type { [3 x ptr], [3 x i64], ptr, ptr, [2 x ptr], ptr, ptr, [2 x ptr], i32 }
%struct.ScratchpadContext = type { ptr, ptr, %union.anon.1, i32 }
%union.anon.1 = type { ptr }
%struct.BlockDSPContext = type { ptr, ptr, [2 x ptr] }
%struct.H264ChromaContext = type { [4 x ptr], [4 x ptr] }
%struct.HpelDSPContext = type { [4 x [4 x ptr]], [4 x [4 x ptr]], [4 x [4 x ptr]], [4 x ptr] }
%struct.IDCTDSPContext = type { ptr, ptr, ptr, ptr, ptr, ptr, [64 x i8], i32, i32 }
%struct.QpelDSPContext = type { [2 x [16 x ptr]], [2 x [16 x ptr]], [2 x [16 x ptr]] }
%struct.VideoDSPContext = type { ptr, ptr }
%struct.H263DSPContext = type { ptr, ptr }
%struct.GetBitContext = type { ptr, ptr, i32, i32, i32 }
%struct.ERContext = type { ptr, ptr, i32, ptr, i32, i32, i32, i64, i64, i32, i32, ptr, ptr, [3 x ptr], ptr, ptr, [2 x [4 x [2 x i32]]], %struct.ERPicture, %struct.ERPicture, %struct.ERPicture, [2 x ptr], [2 x ptr], i16, i16, i32, i32, ptr, ptr }
%struct.ERPicture = type { ptr, ptr, ptr, [2 x ptr], [2 x ptr], ptr, i32 }
%struct.FDCTDSPContext = type { ptr, ptr }
%struct.MpegvideoEncDSPContext = type { ptr, ptr, ptr, ptr, [4 x ptr], ptr }
%struct.PixblockDSPContext = type { ptr, ptr, ptr, ptr }
%struct.MotionEstContext = type { ptr, i32, i32, [4 x [2 x i32]], [4 x [2 x i32]], ptr, ptr, i32, i32, i32, i32, i32, i32, i32, i32, i32, i32, i32, i32, i32, i32, i32, i32, [4 x [4 x ptr]], [4 x [4 x ptr]], i32, i32, i64, i64, i32, [6 x ptr], [6 x ptr], [6 x ptr], [6 x ptr], [2 x [4 x ptr]], ptr, ptr, ptr, ptr, ptr, ptr, ptr, ptr, [64 x i32], [64 x i32] }
%struct.PutBitContext = type { i32, i32, ptr, ptr, ptr }
%struct.AVCodecContext = type { ptr, i32, i32, ptr, i32, i32, ptr, ptr, ptr, i64, i32, i32, ptr, i32, %struct.AVRational, %struct.AVRational, %struct.AVRational, i32, i32, i32, i32, i32, %struct.AVRational, i32, i32, i32, i32, i32, i32, i32, i32, i32, i32, i32, ptr, ptr, i32, float, float, float, float, float, float, float, float, float, i32, i32, i32, i32, i32, i32, i32, i32, i32, i32, i32, i32, ptr, ptr, ptr, i32, i32, i32, i32, i32, i32, i32, i32, i32, i32, %struct.AVChannelLayout, i32, i32, i32, i32, i32, i32, i32, i32, ptr, i32, i32, i32, float, float, i32, i32, i32, i32, i32, ptr, i64, i64, float, float, i32, i32, ptr, ptr, i32, i32, i32, i32, i32, ptr, ptr, ptr, ptr, i32, i32, [8 x i64], i32, i32, i32, i32, i32, i32, i32, ptr, ptr, i32, i32, i32, i32, i32, i32, i32, i32, i32, i32, ptr, ptr, i32, i32, ptr, ptr, ptr, ptr, i32, i32, i64, i32, i32, i64, ptr, i64, ptr, i32, ptr, i32 }
%struct.AVRational = type { i32, i32 }
%struct.AVChannelLayout = type { i32, i32, %union.anon.2, ptr }
%union.anon.2 = type { i64 }
%struct.AVFrame = type { [8 x ptr], [8 x i32], ptr, i32, i32, i32, i32, i32, %struct.AVRational, i64, i64, %struct.AVRational, i32, ptr, i32, i32, [8 x ptr], ptr, i32, ptr, i32, i32, i32, i32, i32, i32, i32, i64, ptr, i32, ptr, ptr, i64, i64, i64, i64, ptr, %struct.AVChannelLayout, i64 }

; Function Attrs: nounwind uwtable
define internal i32 @prepare_picture(ptr noundef %0, ptr noundef %1, ptr noundef %2) #1 {
  %4 = alloca i32, align 4
  %5 = alloca ptr, align 8
  %6 = alloca ptr, align 8
  %7 = alloca ptr, align 8
  %8 = alloca ptr, align 8
  %9 = alloca i32, align 4
  %10 = alloca i32, align 4
  %11 = alloca i32, align 4
  %12 = alloca i32, align 4
  store ptr %0, ptr %5, align 8, !tbaa !4
  store ptr %1, ptr %6, align 8, !tbaa !220
  store ptr %2, ptr %7, align 8, !tbaa !220
  call void @llvm.lifetime.start.p0(i64 8, ptr %8) #14
  %13 = load ptr, ptr %5, align 8, !tbaa !4
  %14 = getelementptr inbounds nuw %struct.MPVEncContext, ptr %13, i32 0, i32 0
  %15 = getelementptr inbounds nuw %struct.MpegEncContext, ptr %14, i32 0, i32 10
  %16 = load ptr, ptr %15, align 8, !tbaa !63
  store ptr %16, ptr %8, align 8, !tbaa !125
  call void @llvm.lifetime.start.p0(i64 4, ptr %9) #14
  %17 = load ptr, ptr %8, align 8, !tbaa !125
  %18 = getelementptr inbounds nuw %struct.AVCodecContext, ptr %17, i32 0, i32 18
  %19 = load i32, ptr %18, align 8, !tbaa !139
  %20 = add nsw i32 %19, 32
  %21 = load ptr, ptr %6, align 8, !tbaa !220
  %22 = getelementptr inbounds nuw %struct.AVFrame, ptr %21, i32 0, i32 3
  store i32 %20, ptr %22, align 8, !tbaa !227
  %23 = load ptr, ptr %8, align 8, !tbaa !125
  %24 = getelementptr inbounds nuw %struct.AVCodecContext, ptr %23, i32 0, i32 19
  %25 = load i32, ptr %24, align 4, !tbaa !141
  %26 = add nsw i32 %25, 32
  %27 = load ptr, ptr %6, align 8, !tbaa !220
  %28 = getelementptr inbounds nuw %struct.AVFrame, ptr %27, i32 0, i32 4
  store i32 %26, ptr %28, align 4, !tbaa !228
  %29 = load ptr, ptr %8, align 8, !tbaa !125
  %30 = load ptr, ptr %6, align 8, !tbaa !220
  %31 = call i32 @ff_encode_alloc_frame(ptr noundef %29, ptr noundef %30)
  store i32 %31, ptr %9, align 4, !tbaa !13
  %32 = load i32, ptr %9, align 4, !tbaa !13
  %33 = icmp slt i32 %32, 0
  br i1 %33, label %34, label %36

34:                                               ; preds = %3
  %35 = load i32, ptr %9, align 4, !tbaa !13
  store i32 %35, ptr %4, align 4
  store i32 1, ptr %10, align 4
  br label %122

36:                                               ; preds = %3
  %37 = load ptr, ptr %8, align 8, !tbaa !125
  %38 = load ptr, ptr %6, align 8, !tbaa !220
  %39 = load ptr, ptr %5, align 8, !tbaa !4
  %40 = getelementptr inbounds nuw %struct.MPVEncContext, ptr %39, i32 0, i32 0
  %41 = getelementptr inbounds nuw %struct.MpegEncContext, ptr %40, i32 0, i32 32
  %42 = load ptr, ptr %5, align 8, !tbaa !4
  %43 = getelementptr inbounds nuw %struct.MPVEncContext, ptr %42, i32 0, i32 0
  %44 = getelementptr inbounds nuw %struct.MpegEncContext, ptr %43, i32 0, i32 33
  %45 = call i32 @ff_mpv_pic_check_linesize(ptr noundef %37, ptr noundef %38, ptr noundef %41, ptr noundef %44)
  store i32 %45, ptr %9, align 4, !tbaa !13
  %46 = load i32, ptr %9, align 4, !tbaa !13
  %47 = icmp slt i32 %46, 0
  br i1 %47, label %48, label %50

48:                                               ; preds = %36
  %49 = load i32, ptr %9, align 4, !tbaa !13
  store i32 %49, ptr %4, align 4
  store i32 1, ptr %10, align 4
  br label %122

50:                                               ; preds = %36
  call void @llvm.lifetime.start.p0(i64 4, ptr %11) #14
  store i32 0, ptr %11, align 4, !tbaa !13
  br label %51

51:                                               ; preds = %100, %50
  %52 = load ptr, ptr %6, align 8, !tbaa !220
  %53 = getelementptr inbounds nuw %struct.AVFrame, ptr %52, i32 0, i32 0
  %54 = load i32, ptr %11, align 4, !tbaa !13
  %55 = sext i32 %54 to i64
  %56 = getelementptr inbounds [8 x ptr], ptr %53, i64 0, i64 %55
  %57 = load ptr, ptr %56, align 8, !tbaa !86
  %58 = icmp ne ptr %57, null
  br i1 %58, label %60, label %59

59:                                               ; preds = %51
  store i32 2, ptr %10, align 4
  call void @llvm.lifetime.end.p0(i64 4, ptr %11) #14
  br label %103

60:                                               ; preds = %51
  call void @llvm.lifetime.start.p0(i64 4, ptr %12) #14
  %61 = load i32, ptr %11, align 4, !tbaa !13
  %62 = icmp ne i32 %61, 0
  br i1 %62, label %63, label %68

63:                                               ; preds = %60
  %64 = load ptr, ptr %5, align 8, !tbaa !4
  %65 = getelementptr inbounds nuw %struct.MPVEncContext, ptr %64, i32 0, i32 0
  %66 = getelementptr inbounds nuw %struct.MpegEncContext, ptr %65, i32 0, i32 149
  %67 = load i32, ptr %66, align 4, !tbaa !365
  br label %69

68:                                               ; preds = %60
  br label %69

69:                                               ; preds = %68, %63
  %70 = phi i32 [ %67, %63 ], [ 0, %68 ]
  %71 = ashr i32 16, %70
  %72 = load ptr, ptr %6, align 8, !tbaa !220
  %73 = getelementptr inbounds nuw %struct.AVFrame, ptr %72, i32 0, i32 1
  %74 = load i32, ptr %11, align 4, !tbaa !13
  %75 = sext i32 %74 to i64
  %76 = getelementptr inbounds [8 x i32], ptr %73, i64 0, i64 %75
  %77 = load i32, ptr %76, align 4, !tbaa !13
  %78 = mul nsw i32 %71, %77
  %79 = load i32, ptr %11, align 4, !tbaa !13
  %80 = icmp ne i32 %79, 0
  br i1 %80, label %81, label %86

81:                                               ; preds = %69
  %82 = load ptr, ptr %5, align 8, !tbaa !4
  %83 = getelementptr inbounds nuw %struct.MPVEncContext, ptr %82, i32 0, i32 0
  %84 = getelementptr inbounds nuw %struct.MpegEncContext, ptr %83, i32 0, i32 148
  %85 = load i32, ptr %84, align 8, !tbaa !364
  br label %87

86:                                               ; preds = %69
  br label %87

87:                                               ; preds = %86, %81
  %88 = phi i32 [ %85, %81 ], [ 0, %86 ]
  %89 = ashr i32 16, %88
  %90 = add nsw i32 %78, %89
  store i32 %90, ptr %12, align 4, !tbaa !13
  %91 = load i32, ptr %12, align 4, !tbaa !13
  %92 = load ptr, ptr %6, align 8, !tbaa !220
  %93 = getelementptr inbounds nuw %struct.AVFrame, ptr %92, i32 0, i32 0
  %94 = load i32, ptr %11, align 4, !tbaa !13
  %95 = sext i32 %94 to i64
  %96 = getelementptr inbounds [8 x ptr], ptr %93, i64 0, i64 %95
  %97 = load ptr, ptr %96, align 8, !tbaa !86
  %98 = sext i32 %91 to i64
  %99 = getelementptr inbounds i8, ptr %97, i64 %98
  store ptr %99, ptr %96, align 8, !tbaa !86
  call void @llvm.lifetime.end.p0(i64 4, ptr %12) #14
  br label %100

100:                                              ; preds = %87
  %101 = load i32, ptr %11, align 4, !tbaa !13
  %102 = add nsw i32 %101, 1
  store i32 %102, ptr %11, align 4, !tbaa !13
  br label %51, !llvm.loop !423

103:                                              ; preds = %59
  %104 = load ptr, ptr %8, align 8, !tbaa !125
  %105 = getelementptr inbounds nuw %struct.AVCodecContext, ptr %104, i32 0, i32 18
  %106 = load i32, ptr %105, align 8, !tbaa !139
  %107 = load ptr, ptr %6, align 8, !tbaa !220
  %108 = getelementptr inbounds nuw %struct.AVFrame, ptr %107, i32 0, i32 3
  store i32 %106, ptr %108, align 8, !tbaa !227
  %109 = load ptr, ptr %8, align 8, !tbaa !125
  %110 = getelementptr inbounds nuw %struct.AVCodecContext, ptr %109, i32 0, i32 19
  %111 = load i32, ptr %110, align 4, !tbaa !141
  %112 = load ptr, ptr %6, align 8, !tbaa !220
  %113 = getelementptr inbounds nuw %struct.AVFrame, ptr %112, i32 0, i32 4
  store i32 %111, ptr %113, align 4, !tbaa !228
  %114 = load ptr, ptr %6, align 8, !tbaa !220
  %115 = load ptr, ptr %7, align 8, !tbaa !220
  %116 = call i32 @av_frame_copy_props(ptr noundef %114, ptr noundef %115)
  store i32 %116, ptr %9, align 4, !tbaa !13
  %117 = load i32, ptr %9, align 4, !tbaa !13
  %118 = icmp slt i32 %117, 0
  br i1 %118, label %119, label %121

119:                                              ; preds = %103
  %120 = load i32, ptr %9, align 4, !tbaa !13
  store i32 %120, ptr %4, align 4
  store i32 1, ptr %10, align 4
  br label %122

121:                                              ; preds = %103
  store i32 0, ptr %4, align 4
  store i32 1, ptr %10, align 4
  br label %122

122:                                              ; preds = %121, %119, %48, %34
  call void @llvm.lifetime.end.p0(i64 4, ptr %9) #14
  call void @llvm.lifetime.end.p0(i64 8, ptr %8) #14
  %123 = load i32, ptr %4, align 4
  ret i32 %123
}