; Function Attrs: nounwind uwtable
define internal fastcc range(i32 -2147483648, 1) i32 @prepare_picture(ptr noundef %0, ptr noundef initializes((104, 112)) %1, ptr noundef %2) unnamed_addr #1 {
  %4 = getelementptr inbounds nuw i8, ptr %0, i64 472
  %5 = load ptr, ptr %4, align 8, !tbaa !56
  %6 = getelementptr inbounds nuw i8, ptr %5, i64 112
  %7 = load i32, ptr %6, align 8, !tbaa !124
  %8 = add nsw i32 %7, 32
  %9 = getelementptr inbounds nuw i8, ptr %1, i64 104
  store i32 %8, ptr %9, align 8, !tbaa !216
  %10 = getelementptr inbounds nuw i8, ptr %5, i64 116
  %11 = load i32, ptr %10, align 4, !tbaa !126
  %12 = add nsw i32 %11, 32
  %13 = getelementptr inbounds nuw i8, ptr %1, i64 108
  store i32 %12, ptr %13, align 4, !tbaa !217
  %14 = tail call i32 @ff_encode_alloc_frame(ptr noundef %5, ptr noundef %1) #16
  %15 = icmp slt i32 %14, 0
  br i1 %15, label %49, label %16

16:                                               ; preds = %3
  %17 = getelementptr inbounds nuw i8, ptr %0, i64 568
  %18 = getelementptr inbounds nuw i8, ptr %0, i64 576
  %19 = tail call i32 @ff_mpv_pic_check_linesize(ptr noundef nonnull %5, ptr noundef nonnull %1, ptr noundef nonnull %17, ptr noundef nonnull %18) #16
  %20 = icmp slt i32 %19, 0
  br i1 %20, label %49, label %.preheader

.preheader:                                       ; preds = %16
  %21 = load ptr, ptr %1, align 8, !tbaa !98
  %.not40 = icmp eq ptr %21, null
  br i1 %.not40, label %._crit_edge, label %.lr.ph

.lr.ph:                                           ; preds = %.preheader
  %22 = getelementptr inbounds nuw i8, ptr %0, i64 4260
  %23 = getelementptr inbounds nuw i8, ptr %1, i64 64
  %24 = getelementptr inbounds nuw i8, ptr %0, i64 4256
  br label %28

._crit_edge:                                      ; preds = %40, %.preheader
  %25 = load i32, ptr %6, align 8, !tbaa !124
  store i32 %25, ptr %9, align 8, !tbaa !216
  %26 = load i32, ptr %10, align 4, !tbaa !126
  store i32 %26, ptr %13, align 4, !tbaa !217
  %27 = tail call i32 @av_frame_copy_props(ptr noundef nonnull %1, ptr noundef %2) #16
  %. = tail call i32 @llvm.smin.i32(i32 %27, i32 0)
  br label %49

28:                                               ; preds = %.lr.ph, %40
  %indvars.iv = phi i64 [ 0, %.lr.ph ], [ %indvars.iv.next, %40 ]
  %29 = phi ptr [ %21, %.lr.ph ], [ %48, %40 ]
  %30 = phi ptr [ %1, %.lr.ph ], [ %47, %40 ]
  %.not39 = icmp eq i64 %indvars.iv, 0
  br i1 %.not39, label %.thread, label %33

.thread:                                          ; preds = %28
  %31 = load i32, ptr %23, align 4, !tbaa !49
  %32 = shl nsw i32 %31, 4
  br label %40

33:                                               ; preds = %28
  %34 = load i32, ptr %22, align 4, !tbaa !288
  %35 = lshr i32 16, %34
  %36 = getelementptr inbounds nuw [8 x i32], ptr %23, i64 0, i64 %indvars.iv
  %37 = load i32, ptr %36, align 4, !tbaa !49
  %38 = mul nsw i32 %35, %37
  %39 = load i32, ptr %24, align 8, !tbaa !287
  br label %40

40:                                               ; preds = %.thread, %33
  %41 = phi i32 [ %38, %33 ], [ %32, %.thread ]
  %42 = phi i32 [ %39, %33 ], [ 0, %.thread ]
  %43 = lshr i32 16, %42
  %44 = add nsw i32 %43, %41
  %45 = sext i32 %44 to i64
  %46 = getelementptr inbounds i8, ptr %29, i64 %45
  store ptr %46, ptr %30, align 8, !tbaa !98
  %indvars.iv.next = add nuw nsw i64 %indvars.iv, 1
  %47 = getelementptr inbounds nuw [8 x ptr], ptr %1, i64 0, i64 %indvars.iv.next
  %48 = load ptr, ptr %47, align 8, !tbaa !98
  %.not = icmp eq ptr %48, null
  br i1 %.not, label %._crit_edge, label %28, !llvm.loop !426

49:                                               ; preds = %._crit_edge, %16, %3
  %.0 = phi i32 [ %14, %3 ], [ %19, %16 ], [ %., %._crit_edge ]
  ret i32 %.0
}